target datalayout = "e-m:e-p270:32:32-p271:32:32-p272:64:64-i64:64-i128:128-f80:128-n8:16:32:64-S128"
target triple = "x86_64-pc-linux-gnu"

%"struct.Luau::CodeGen::X64::RegisterX64" = type { i8 }
%"struct.Luau::CodeGen::A64::RegisterA64" = type { i8 }
%"struct.Luau::CodeGen::IrOp" = type { i32 }
%"struct.Luau::CodeGen::IrFunction" = type { %"class.std::vector", %"class.std::vector.0", %"class.std::vector.5", %"class.std::vector.10", %"class.std::vector.15", %"class.std::vector.20", i32, i32, %"class.std::vector.25", %"class.std::vector.30", %"struct.Luau::CodeGen::BytecodeTypeInfo", ptr, i8, %"struct.Luau::CodeGen::CfgInfo", ptr }
%"class.std::vector" = type { %"struct.std::_Vector_base" }
%"struct.std::_Vector_base" = type { %"struct.std::_Vector_base<Luau::CodeGen::IrBlock, std::allocator<Luau::CodeGen::IrBlock>>::_Vector_impl" }
%"struct.std::_Vector_base<Luau::CodeGen::IrBlock, std::allocator<Luau::CodeGen::IrBlock>>::_Vector_impl" = type { %"struct.std::_Vector_base<Luau::CodeGen::IrBlock, std::allocator<Luau::CodeGen::IrBlock>>::_Vector_impl_data" }
%"struct.std::_Vector_base<Luau::CodeGen::IrBlock, std::allocator<Luau::CodeGen::IrBlock>>::_Vector_impl_data" = type { ptr, ptr, ptr }
%"class.std::vector.0" = type { %"struct.std::_Vector_base.1" }
%"struct.std::_Vector_base.1" = type { %"struct.std::_Vector_base<Luau::CodeGen::IrInst, std::allocator<Luau::CodeGen::IrInst>>::_Vector_impl" }
%"struct.std::_Vector_base<Luau::CodeGen::IrInst, std::allocator<Luau::CodeGen::IrInst>>::_Vector_impl" = type { %"struct.std::_Vector_base<Luau::CodeGen::IrInst, std::allocator<Luau::CodeGen::IrInst>>::_Vector_impl_data" }
%"struct.std::_Vector_base<Luau::CodeGen::IrInst, std::allocator<Luau::CodeGen::IrInst>>::_Vector_impl_data" = type { ptr, ptr, ptr }
%"class.std::vector.5" = type { %"struct.std::_Vector_base.6" }
%"struct.std::_Vector_base.6" = type { %"struct.std::_Vector_base<Luau::CodeGen::IrConst, std::allocator<Luau::CodeGen::IrConst>>::_Vector_impl" }
%"struct.std::_Vector_base<Luau::CodeGen::IrConst, std::allocator<Luau::CodeGen::IrConst>>::_Vector_impl" = type { %"struct.std::_Vector_base<Luau::CodeGen::IrConst, std::allocator<Luau::CodeGen::IrConst>>::_Vector_impl_data" }
%"struct.std::_Vector_base<Luau::CodeGen::IrConst, std::allocator<Luau::CodeGen::IrConst>>::_Vector_impl_data" = type { ptr, ptr, ptr }
%"class.std::vector.10" = type { %"struct.std::_Vector_base.11" }
%"struct.std::_Vector_base.11" = type { %"struct.std::_Vector_base<Luau::CodeGen::BytecodeBlock, std::allocator<Luau::CodeGen::BytecodeBlock>>::_Vector_impl" }
%"struct.std::_Vector_base<Luau::CodeGen::BytecodeBlock, std::allocator<Luau::CodeGen::BytecodeBlock>>::_Vector_impl" = type { %"struct.std::_Vector_base<Luau::CodeGen::BytecodeBlock, std::allocator<Luau::CodeGen::BytecodeBlock>>::_Vector_impl_data" }
%"struct.std::_Vector_base<Luau::CodeGen::BytecodeBlock, std::allocator<Luau::CodeGen::BytecodeBlock>>::_Vector_impl_data" = type { ptr, ptr, ptr }
%"class.std::vector.15" = type { %"struct.std::_Vector_base.16" }
%"struct.std::_Vector_base.16" = type { %"struct.std::_Vector_base<Luau::CodeGen::BytecodeTypes, std::allocator<Luau::CodeGen::BytecodeTypes>>::_Vector_impl" }
%"struct.std::_Vector_base<Luau::CodeGen::BytecodeTypes, std::allocator<Luau::CodeGen::BytecodeTypes>>::_Vector_impl" = type { %"struct.std::_Vector_base<Luau::CodeGen::BytecodeTypes, std::allocator<Luau::CodeGen::BytecodeTypes>>::_Vector_impl_data" }
%"struct.std::_Vector_base<Luau::CodeGen::BytecodeTypes, std::allocator<Luau::CodeGen::BytecodeTypes>>::_Vector_impl_data" = type { ptr, ptr, ptr }
%"class.std::vector.20" = type { %"struct.std::_Vector_base.21" }
%"struct.std::_Vector_base.21" = type { %"struct.std::_Vector_base<Luau::CodeGen::BytecodeMapping, std::allocator<Luau::CodeGen::BytecodeMapping>>::_Vector_impl" }
%"struct.std::_Vector_base<Luau::CodeGen::BytecodeMapping, std::allocator<Luau::CodeGen::BytecodeMapping>>::_Vector_impl" = type { %"struct.std::_Vector_base<Luau::CodeGen::BytecodeMapping, std::allocator<Luau::CodeGen::BytecodeMapping>>::_Vector_impl_data" }
%"struct.std::_Vector_base<Luau::CodeGen::BytecodeMapping, std::allocator<Luau::CodeGen::BytecodeMapping>>::_Vector_impl_data" = type { ptr, ptr, ptr }
%"class.std::vector.25" = type { %"struct.std::_Vector_base.26" }
%"struct.std::_Vector_base.26" = type { %"struct.std::_Vector_base<Luau::CodeGen::IrOp, std::allocator<Luau::CodeGen::IrOp>>::_Vector_impl" }
%"struct.std::_Vector_base<Luau::CodeGen::IrOp, std::allocator<Luau::CodeGen::IrOp>>::_Vector_impl" = type { %"struct.std::_Vector_base<Luau::CodeGen::IrOp, std::allocator<Luau::CodeGen::IrOp>>::_Vector_impl_data" }
%"struct.std::_Vector_base<Luau::CodeGen::IrOp, std::allocator<Luau::CodeGen::IrOp>>::_Vector_impl_data" = type { ptr, ptr, ptr }
%"class.std::vector.30" = type { %"struct.std::_Vector_base.31" }
%"struct.std::_Vector_base.31" = type { %"struct.std::_Vector_base<unsigned int, std::allocator<unsigned int>>::_Vector_impl" }
%"struct.std::_Vector_base<unsigned int, std::allocator<unsigned int>>::_Vector_impl" = type { %"struct.std::_Vector_base<unsigned int, std::allocator<unsigned int>>::_Vector_impl_data" }
%"struct.std::_Vector_base<unsigned int, std::allocator<unsigned int>>::_Vector_impl_data" = type { ptr, ptr, ptr }
%"struct.Luau::CodeGen::BytecodeTypeInfo" = type { %"class.std::vector.35", %"class.std::vector.40", %"class.std::vector.35", %"class.std::vector.30" }
%"class.std::vector.40" = type { %"struct.std::_Vector_base.41" }
%"struct.std::_Vector_base.41" = type { %"struct.std::_Vector_base<Luau::CodeGen::BytecodeRegTypeInfo, std::allocator<Luau::CodeGen::BytecodeRegTypeInfo>>::_Vector_impl" }
%"struct.std::_Vector_base<Luau::CodeGen::BytecodeRegTypeInfo, std::allocator<Luau::CodeGen::BytecodeRegTypeInfo>>::_Vector_impl" = type { %"struct.std::_Vector_base<Luau::CodeGen::BytecodeRegTypeInfo, std::allocator<Luau::CodeGen::BytecodeRegTypeInfo>>::_Vector_impl_data" }
%"struct.std::_Vector_base<Luau::CodeGen::BytecodeRegTypeInfo, std::allocator<Luau::CodeGen::BytecodeRegTypeInfo>>::_Vector_impl_data" = type { ptr, ptr, ptr }
%"class.std::vector.35" = type { %"struct.std::_Vector_base.36" }
%"struct.std::_Vector_base.36" = type { %"struct.std::_Vector_base<unsigned char, std::allocator<unsigned char>>::_Vector_impl" }
%"struct.std::_Vector_base<unsigned char, std::allocator<unsigned char>>::_Vector_impl" = type { %"struct.std::_Vector_base<unsigned char, std::allocator<unsigned char>>::_Vector_impl_data" }
%"struct.std::_Vector_base<unsigned char, std::allocator<unsigned char>>::_Vector_impl_data" = type { ptr, ptr, ptr }
%"struct.Luau::CodeGen::CfgInfo" = type { %"class.std::vector.30", %"class.std::vector.30", %"class.std::vector.30", %"class.std::vector.30", %"class.std::vector.30", %"class.std::vector.30", %"class.std::vector.30", %"class.std::vector.45", %"class.std::vector.50", %"class.std::vector.50", %"class.std::vector.50", %"struct.Luau::CodeGen::RegisterSet" }
%"class.std::vector.45" = type { %"struct.std::_Vector_base.46" }
%"struct.std::_Vector_base.46" = type { %"struct.std::_Vector_base<Luau::CodeGen::BlockOrdering, std::allocator<Luau::CodeGen::BlockOrdering>>::_Vector_impl" }
%"struct.std::_Vector_base<Luau::CodeGen::BlockOrdering, std::allocator<Luau::CodeGen::BlockOrdering>>::_Vector_impl" = type { %"struct.std::_Vector_base<Luau::CodeGen::BlockOrdering, std::allocator<Luau::CodeGen::BlockOrdering>>::_Vector_impl_data" }
%"struct.std::_Vector_base<Luau::CodeGen::BlockOrdering, std::allocator<Luau::CodeGen::BlockOrdering>>::_Vector_impl_data" = type { ptr, ptr, ptr }
%"class.std::vector.50" = type { %"struct.std::_Vector_base.51" }
%"struct.std::_Vector_base.51" = type { %"struct.std::_Vector_base<Luau::CodeGen::RegisterSet, std::allocator<Luau::CodeGen::RegisterSet>>::_Vector_impl" }
%"struct.std::_Vector_base<Luau::CodeGen::RegisterSet, std::allocator<Luau::CodeGen::RegisterSet>>::_Vector_impl" = type { %"struct.std::_Vector_base<Luau::CodeGen::RegisterSet, std::allocator<Luau::CodeGen::RegisterSet>>::_Vector_impl_data" }
%"struct.std::_Vector_base<Luau::CodeGen::RegisterSet, std::allocator<Luau::CodeGen::RegisterSet>>::_Vector_impl_data" = type { ptr, ptr, ptr }
%"struct.Luau::CodeGen::RegisterSet" = type <{ %"class.std::bitset", i8, i8, [6 x i8] }>
%"class.std::bitset" = type { %"struct.std::_Base_bitset" }
%"struct.std::_Base_bitset" = type { [4 x i64] }
%"struct.Luau::CodeGen::IrInst" = type <{ i8, [3 x i8], %"struct.Luau::CodeGen::IrOp", %"struct.Luau::CodeGen::IrOp", %"struct.Luau::CodeGen::IrOp", %"struct.Luau::CodeGen::IrOp", %"struct.Luau::CodeGen::IrOp", %"struct.Luau::CodeGen::IrOp", %"struct.Luau::CodeGen::IrOp", i32, i16, %"struct.Luau::CodeGen::X64::RegisterX64", %"struct.Luau::CodeGen::A64::RegisterA64", i8, i8, i8, i8 }>
%"struct.Luau::CodeGen::IrBlock" = type { i8, i16, i32, i32, i32, i32, i32, %"struct.Luau::CodeGen::Label" }
%"struct.Luau::CodeGen::Label" = type { i32, i32 }

; Function Attrs: mustprogress nounwind uwtable
define linkonce_odr dso_local noundef nonnull align 4 dereferenceable(43) ptr @_ZNSt6vectorIN4Luau7CodeGen6IrInstESaIS2_EEixEm(ptr noundef nonnull align 8 dereferenceable(24) %0, i64 noundef %1) #0 comdat align 2 {
  %3 = alloca ptr, align 8
  %4 = alloca i64, align 8
  store ptr %0, ptr %3, align 8, !tbaa !26
  store i64 %1, ptr %4, align 8, !tbaa !28
  %5 = load ptr, ptr %3, align 8
  %6 = getelementptr inbounds nuw %"struct.std::_Vector_base.1", ptr %5, i32 0, i32 0
  %7 = getelementptr inbounds nuw %"struct.std::_Vector_base<Luau::CodeGen::IrInst, std::allocator<Luau::CodeGen::IrInst>>::_Vector_impl_data", ptr %6, i32 0, i32 0
  %8 = load ptr, ptr %7, align 8, !tbaa !30
  %9 = load i64, ptr %4, align 8, !tbaa !28
  %10 = getelementptr inbounds nuw %"struct.Luau::CodeGen::IrInst", ptr %8, i64 %9
  ret ptr %10
}

; Function Attrs: mustprogress uwtable
define dso_local void @_ZN4Luau7CodeGen4killERNS0_10IrFunctionEjj(ptr noundef nonnull align 8 dereferenceable(624) %0, i32 noundef %1, i32 noundef %2) #1 {
  %4 = alloca ptr, align 8
  %5 = alloca i32, align 4
  %6 = alloca i32, align 4
  %7 = alloca i32, align 4
  %8 = alloca i32, align 4
  %9 = alloca ptr, align 8
  store ptr %0, ptr %4, align 8, !tbaa !8
  store i32 %1, ptr %5, align 4, !tbaa !38
  store i32 %2, ptr %6, align 4, !tbaa !38
  call void @llvm.lifetime.start.p0(i64 4, ptr %7) #14
  %10 = load i32, ptr %6, align 4, !tbaa !38
  store i32 %10, ptr %7, align 4, !tbaa !38
  br label %11

11:                                               ; preds = %33, %3
  %12 = load i32, ptr %7, align 4, !tbaa !38
  %13 = load i32, ptr %5, align 4, !tbaa !38
  %14 = icmp sge i32 %12, %13
  br i1 %14, label %16, label %15

15:                                               ; preds = %11
  store i32 2, ptr %8, align 4
  call void @llvm.lifetime.end.p0(i64 4, ptr %7) #14
  br label %36

16:                                               ; preds = %11
  call void @llvm.lifetime.start.p0(i64 8, ptr %9) #14
  %17 = load ptr, ptr %4, align 8, !tbaa !8
  %18 = getelementptr inbounds nuw %"struct.Luau::CodeGen::IrFunction", ptr %17, i32 0, i32 1
  %19 = load i32, ptr %7, align 4, !tbaa !38
  %20 = sext i32 %19 to i64
  %21 = call noundef nonnull align 4 dereferenceable(43) ptr @_ZNSt6vectorIN4Luau7CodeGen6IrInstESaIS2_EEixEm(ptr noundef nonnull align 8 dereferenceable(24) %18, i64 noundef %20) #14
  store ptr %21, ptr %9, align 8, !tbaa !39
  %22 = load ptr, ptr %9, align 8, !tbaa !39
  %23 = getelementptr inbounds nuw %"struct.Luau::CodeGen::IrInst", ptr %22, i32 0, i32 0
  %24 = load i8, ptr %23, align 4, !tbaa !42
  %25 = icmp eq i8 %24, 0
  br i1 %25, label %26, label %27

26:                                               ; preds = %16
  store i32 4, ptr %8, align 4
  br label %30

27:                                               ; preds = %16
  %28 = load ptr, ptr %4, align 8, !tbaa !8
  %29 = load ptr, ptr %9, align 8, !tbaa !39
  call void @_ZN4Luau7CodeGen4killERNS0_10IrFunctionERNS0_6IrInstE(ptr noundef nonnull align 8 dereferenceable(624) %28, ptr noundef nonnull align 4 dereferenceable(43) %29)
  store i32 0, ptr %8, align 4
  br label %30

30:                                               ; preds = %27, %26
  call void @llvm.lifetime.end.p0(i64 8, ptr %9) #14
  %31 = load i32, ptr %8, align 4
  switch i32 %31, label %37 [
    i32 0, label %32
    i32 4, label %33
  ]

32:                                               ; preds = %30
  br label %33

33:                                               ; preds = %32, %30
  %34 = load i32, ptr %7, align 4, !tbaa !38
  %35 = add nsw i32 %34, -1
  store i32 %35, ptr %7, align 4, !tbaa !38
  br label %11, !llvm.loop !46

36:                                               ; preds = %15
  ret void

37:                                               ; preds = %30
  unreachable
}

; Function Attrs: mustprogress uwtable
define dso_local void @_ZN4Luau7CodeGen4killERNS0_10IrFunctionERNS0_7IrBlockE(ptr noundef nonnull align 8 dereferenceable(624) %0, ptr noundef nonnull align 4 dereferenceable(32) %1) #1 {
  %3 = alloca ptr, align 8
  %4 = alloca ptr, align 8
  store ptr %0, ptr %3, align 8, !tbaa !8
  store ptr %1, ptr %4, align 8, !tbaa !40
  %5 = load ptr, ptr %4, align 8, !tbaa !40
  %6 = getelementptr inbounds nuw %"struct.Luau::CodeGen::IrBlock", ptr %5, i32 0, i32 0
  store i8 4, ptr %6, align 4, !tbaa !48
  %7 = load ptr, ptr %3, align 8, !tbaa !8
  %8 = load ptr, ptr %4, align 8, !tbaa !40
  %9 = getelementptr inbounds nuw %"struct.Luau::CodeGen::IrBlock", ptr %8, i32 0, i32 2
  %10 = load i32, ptr %9, align 4, !tbaa !49
  %11 = load ptr, ptr %4, align 8, !tbaa !40
  %12 = getelementptr inbounds nuw %"struct.Luau::CodeGen::IrBlock", ptr %11, i32 0, i32 3
  %13 = load i32, ptr %12, align 4, !tbaa !50
  call void @_ZN4Luau7CodeGen4killERNS0_10IrFunctionEjj(ptr noundef nonnull align 8 dereferenceable(624) %7, i32 noundef %10, i32 noundef %13)
  %14 = load ptr, ptr %4, align 8, !tbaa !40
  %15 = getelementptr inbounds nuw %"struct.Luau::CodeGen::IrBlock", ptr %14, i32 0, i32 2
  store i32 -1, ptr %15, align 4, !tbaa !49
  %16 = load ptr, ptr %4, align 8, !tbaa !40
  %17 = getelementptr inbounds nuw %"struct.Luau::CodeGen::IrBlock", ptr %16, i32 0, i32 3
  store i32 -1, ptr %17, align 4, !tbaa !50
  ret void
}

; Function Attrs: mustprogress nounwind uwtable
define linkonce_odr dso_local noundef nonnull align 4 dereferenceable(32) ptr @_ZNSt6vectorIN4Luau7CodeGen7IrBlockESaIS2_EEixEm(ptr noundef nonnull align 8 dereferenceable(24) %0, i64 noundef %1) #0 comdat align 2 {
  %3 = alloca ptr, align 8
  %4 = alloca i64, align 8
  store ptr %0, ptr %3, align 8, !tbaa !33
  store i64 %1, ptr %4, align 8, !tbaa !28
  %5 = load ptr, ptr %3, align 8
  %6 = getelementptr inbounds nuw %"struct.std::_Vector_base", ptr %5, i32 0, i32 0
  %7 = getelementptr inbounds nuw %"struct.std::_Vector_base<Luau::CodeGen::IrBlock, std::allocator<Luau::CodeGen::IrBlock>>::_Vector_impl_data", ptr %6, i32 0, i32 0
  %8 = load ptr, ptr %7, align 8, !tbaa !35
  %9 = load i64, ptr %4, align 8, !tbaa !28
  %10 = getelementptr inbounds nuw %"struct.Luau::CodeGen::IrBlock", ptr %8, i64 %9
  ret ptr %10
}

; Function Attrs: mustprogress nounwind uwtable
define linkonce_odr dso_local noundef i64 @_ZNKSt6vectorIN4Luau7CodeGen7IrBlockESaIS2_EE4sizeEv(ptr noundef nonnull align 8 dereferenceable(24) %0) #0 comdat align 2 {
  %2 = alloca ptr, align 8
  store ptr %0, ptr %2, align 8, !tbaa !33
  %3 = load ptr, ptr %2, align 8
  %4 = getelementptr inbounds nuw %"struct.std::_Vector_base", ptr %3, i32 0, i32 0
  %5 = getelementptr inbounds nuw %"struct.std::_Vector_base<Luau::CodeGen::IrBlock, std::allocator<Luau::CodeGen::IrBlock>>::_Vector_impl_data", ptr %4, i32 0, i32 1
  %6 = load ptr, ptr %5, align 8, !tbaa !68
  %7 = getelementptr inbounds nuw %"struct.std::_Vector_base", ptr %3, i32 0, i32 0
  %8 = getelementptr inbounds nuw %"struct.std::_Vector_base<Luau::CodeGen::IrBlock, std::allocator<Luau::CodeGen::IrBlock>>::_Vector_impl_data", ptr %7, i32 0, i32 0
  %9 = load ptr, ptr %8, align 8, !tbaa !35
  %10 = ptrtoint ptr %6 to i64
  %11 = ptrtoint ptr %9 to i64
  %12 = sub i64 %10, %11
  %13 = sdiv exact i64 %12, 32
  ret i64 %13
}

; Function Attrs: mustprogress uwtable
define dso_local void @_ZN4Luau7CodeGen16killUnusedBlocksERNS0_10IrFunctionE(ptr noundef nonnull align 8 dereferenceable(624) %0) #1 {
  %2 = alloca ptr, align 8
  %3 = alloca i32, align 4
  %4 = alloca ptr, align 8
  store ptr %0, ptr %2, align 8, !tbaa !8
  call void @llvm.lifetime.start.p0(i64 4, ptr %3) #14
  store i32 1, ptr %3, align 4, !tbaa !38
  br label %5

5:                                                ; preds = %33, %1
  %6 = load i32, ptr %3, align 4, !tbaa !38
  %7 = zext i32 %6 to i64
  %8 = load ptr, ptr %2, align 8, !tbaa !8
  %9 = getelementptr inbounds nuw %"struct.Luau::CodeGen::IrFunction", ptr %8, i32 0, i32 0
  %10 = call noundef i64 @_ZNKSt6vectorIN4Luau7CodeGen7IrBlockESaIS2_EE4sizeEv(ptr noundef nonnull align 8 dereferenceable(24) %9) #14
  %11 = icmp ult i64 %7, %10
  br i1 %11, label %13, label %12

12:                                               ; preds = %5
  call void @llvm.lifetime.end.p0(i64 4, ptr %3) #14
  br label %36

13:                                               ; preds = %5
  call void @llvm.lifetime.start.p0(i64 8, ptr %4) #14
  %14 = load ptr, ptr %2, align 8, !tbaa !8
  %15 = getelementptr inbounds nuw %"struct.Luau::CodeGen::IrFunction", ptr %14, i32 0, i32 0
  %16 = load i32, ptr %3, align 4, !tbaa !38
  %17 = zext i32 %16 to i64
  %18 = call noundef nonnull align 4 dereferenceable(32) ptr @_ZNSt6vectorIN4Luau7CodeGen7IrBlockESaIS2_EEixEm(ptr noundef nonnull align 8 dereferenceable(24) %15, i64 noundef %17) #14
  store ptr %18, ptr %4, align 8, !tbaa !40
  %19 = load ptr, ptr %4, align 8, !tbaa !40
  %20 = getelementptr inbounds nuw %"struct.Luau::CodeGen::IrBlock", ptr %19, i32 0, i32 0
  %21 = load i8, ptr %20, align 4, !tbaa !48
  %22 = icmp ne i8 %21, 4
  br i1 %22, label %23, label %32

23:                                               ; preds = %13
  %24 = load ptr, ptr %4, align 8, !tbaa !40
  %25 = getelementptr inbounds nuw %"struct.Luau::CodeGen::IrBlock", ptr %24, i32 0, i32 1
  %26 = load i16, ptr %25, align 2, !tbaa !22
  %27 = zext i16 %26 to i32
  %28 = icmp eq i32 %27, 0
  br i1 %28, label %29, label %32

29:                                               ; preds = %23
  %30 = load ptr, ptr %2, align 8, !tbaa !8
  %31 = load ptr, ptr %4, align 8, !tbaa !40
  call void @_ZN4Luau7CodeGen4killERNS0_10IrFunctionERNS0_7IrBlockE(ptr noundef nonnull align 8 dereferenceable(624) %30, ptr noundef nonnull align 4 dereferenceable(32) %31)
  br label %32

32:                                               ; preds = %29, %23, %13
  call void @llvm.lifetime.end.p0(i64 8, ptr %4) #14
  br label %33

33:                                               ; preds = %32
  %34 = load i32, ptr %3, align 4, !tbaa !38
  %35 = add i32 %34, 1
  store i32 %35, ptr %3, align 4, !tbaa !38
  br label %5, !llvm.loop !67

36:                                               ; preds = %12
  ret void
}