; Function Attrs: mustprogress nofree nosync nounwind memory(readwrite, inaccessiblemem: none) uwtable
define dso_local void @_ZN4Luau7CodeGen16killUnusedBlocksERNS0_10IrFunctionE(ptr noundef nonnull align 8 dereferenceable(624) %0) local_unnamed_addr #2 {
  %2 = getelementptr inbounds nuw i8, ptr %0, i64 8
  %3 = load ptr, ptr %2, align 8, !tbaa !44
  %4 = load ptr, ptr %0, align 8, !tbaa !22
  %5 = ptrtoint ptr %3 to i64
  %6 = ptrtoint ptr %4 to i64
  %7 = sub i64 %5, %6
  %8 = icmp ugt i64 %7, 32
  br i1 %8, label %.lr.ph, label %._crit_edge

.lr.ph:                                           ; preds = %1
  %9 = getelementptr inbounds nuw i8, ptr %0, i64 24
  br label %10

._crit_edge:                                      ; preds = %34, %1
  ret void

10:                                               ; preds = %.lr.ph, %34
  %.pre1014 = phi ptr [ %4, %.lr.ph ], [ %.pre1015, %34 ]
  %.pre11 = phi ptr [ %3, %.lr.ph ], [ %.pre12, %34 ]
  %11 = phi ptr [ %4, %.lr.ph ], [ %35, %34 ]
  %12 = phi ptr [ %3, %.lr.ph ], [ %36, %34 ]
  %13 = phi i64 [ 1, %.lr.ph ], [ %38, %34 ]
  %.09 = phi i32 [ 1, %.lr.ph ], [ %37, %34 ]
  %14 = getelementptr inbounds nuw %"struct.Luau::CodeGen::IrBlock", ptr %11, i64 %13
  %15 = load i8, ptr %14, align 4, !tbaa !29
  %.not = icmp eq i8 %15, 4
  br i1 %.not, label %34, label %16

16:                                               ; preds = %10
  %17 = getelementptr inbounds nuw i8, ptr %14, i64 2
  %18 = load i16, ptr %17, align 2, !tbaa !25
  %19 = icmp eq i16 %18, 0
  br i1 %19, label %20, label %34

20:                                               ; preds = %16
  store i8 4, ptr %14, align 4, !tbaa !29
  %21 = getelementptr inbounds nuw i8, ptr %14, i64 4
  %22 = load i32, ptr %21, align 4, !tbaa !30
  %23 = getelementptr inbounds nuw i8, ptr %14, i64 8
  %24 = load i32, ptr %23, align 4, !tbaa !31
  %.not.i6.i = icmp slt i32 %24, %22
  br i1 %.not.i6.i, label %_ZN4Luau7CodeGen4killERNS0_10IrFunctionERNS0_7IrBlockE.exit, label %.lr.ph.i

.lr.ph.i:                                         ; preds = %20
  %25 = sext i32 %24 to i64
  %26 = sext i32 %22 to i64
  br label %27

27:                                               ; preds = %33, %.lr.ph.i
  %indvars.iv.i = phi i64 [ %25, %.lr.ph.i ], [ %indvars.iv.next.i, %33 ]
  %28 = load ptr, ptr %9, align 8, !tbaa !4
  %29 = getelementptr inbounds nuw %"struct.Luau::CodeGen::IrInst", ptr %28, i64 %indvars.iv.i
  %30 = load i8, ptr %29, align 4, !tbaa !32
  %31 = icmp eq i8 %30, 0
  br i1 %31, label %33, label %32

32:                                               ; preds = %27
  tail call void @_ZN4Luau7CodeGen4killERNS0_10IrFunctionERNS0_6IrInstE(ptr noundef nonnull align 8 dereferenceable(624) %0, ptr noundef nonnull align 4 dereferenceable(43) %29)
  br label %33

33:                                               ; preds = %32, %27
  %indvars.iv.next.i = add nsw i64 %indvars.iv.i, -1
  %.not.i.not.i = icmp sgt i64 %indvars.iv.i, %26
  br i1 %.not.i.not.i, label %27, label %_ZN4Luau7CodeGen4killERNS0_10IrFunctionERNS0_7IrBlockE.exit.loopexit, !llvm.loop !33

_ZN4Luau7CodeGen4killERNS0_10IrFunctionERNS0_7IrBlockE.exit.loopexit: ; preds = %33
  %.pre.pre = load ptr, ptr %2, align 8, !tbaa !44
  %.pre10.pre = load ptr, ptr %0, align 8, !tbaa !22
  br label %_ZN4Luau7CodeGen4killERNS0_10IrFunctionERNS0_7IrBlockE.exit

_ZN4Luau7CodeGen4killERNS0_10IrFunctionERNS0_7IrBlockE.exit: ; preds = %_ZN4Luau7CodeGen4killERNS0_10IrFunctionERNS0_7IrBlockE.exit.loopexit, %20
  %.pre10 = phi ptr [ %.pre10.pre, %_ZN4Luau7CodeGen4killERNS0_10IrFunctionERNS0_7IrBlockE.exit.loopexit ], [ %.pre1014, %20 ]
  %.pre = phi ptr [ %.pre.pre, %_ZN4Luau7CodeGen4killERNS0_10IrFunctionERNS0_7IrBlockE.exit.loopexit ], [ %.pre11, %20 ]
  store i32 -1, ptr %21, align 4, !tbaa !30
  store i32 -1, ptr %23, align 4, !tbaa !31
  br label %34

34:                                               ; preds = %_ZN4Luau7CodeGen4killERNS0_10IrFunctionERNS0_7IrBlockE.exit, %16, %10
  %.pre1015 = phi ptr [ %.pre10, %_ZN4Luau7CodeGen4killERNS0_10IrFunctionERNS0_7IrBlockE.exit ], [ %.pre1014, %16 ], [ %.pre1014, %10 ]
  %.pre12 = phi ptr [ %.pre, %_ZN4Luau7CodeGen4killERNS0_10IrFunctionERNS0_7IrBlockE.exit ], [ %.pre11, %16 ], [ %.pre11, %10 ]
  %35 = phi ptr [ %.pre10, %_ZN4Luau7CodeGen4killERNS0_10IrFunctionERNS0_7IrBlockE.exit ], [ %11, %16 ], [ %11, %10 ]
  %36 = phi ptr [ %.pre, %_ZN4Luau7CodeGen4killERNS0_10IrFunctionERNS0_7IrBlockE.exit ], [ %12, %16 ], [ %12, %10 ]
  %37 = add i32 %.09, 1
  %38 = zext i32 %37 to i64
  %39 = ptrtoint ptr %36 to i64
  %40 = ptrtoint ptr %35 to i64
  %41 = sub i64 %39, %40
  %42 = ashr exact i64 %41, 5
  %43 = icmp ugt i64 %42, %38
  br i1 %43, label %10, label %._crit_edge, !llvm.loop !45
}